(dp0
S'w75'
p1
(dp2
S'resp'
p3
(lp4
Vable
p5
asS'uses'
p6
I0
sS'name'
p7
g5
ssS'w74'
p8
(dp9
g3
(lp10
Vbe
p11
aVokay
p12
aVfor
p13
aVno
p14
aVI
p15
aVit's
p16
aVpeople
p17
aVsome
p18
aVsay
p19
aVyes
p20
aVnow
p21
aVthink
p22
asg6
I0
sg7
g11
ssS'w77'
p23
(dp24
g3
(lp25
Vhouse
p26
asg6
I0
sg7
g26
ssS'w76'
p27
(dp28
g3
(lp29
Vcontrol
p30
asg6
I0
sg7
g30
ssS'w71'
p31
(dp32
S'resp'
p33
(lp34
Vdata
p35
asS'uses'
p36
I0
sS'name'
p37
g35
ssS'w70'
p38
(dp39
g33
(lp40
Vfunny
p41
asg36
I0
sg37
g41
ssS'w73'
p42
(dp43
g3
(lp44
Vyes
p45
aVgood
p46
aVthat's
p47
asg6
I0
sg7
g45
ssS'w72'
p48
(dp49
g3
(lp50
Vwelcome
p51
asg6
I0
sg7
g51
ssS'w79'
p52
(dp53
S'resp'
p54
(lp55
g12
ag13
ag14
ag15
ag16
ag17
ag18
ag19
ag20
ag21
ag22
ag47
asS'uses'
p56
I0
sS'name'
p57
g47
ssS'w78'
p58
(dp59
g54
(lp60
Vlike
p61
asg56
I0
sg57
g61
ssS'w68'
p62
(dp63
g33
(lp64
g46
ag12
ag13
ag17
ag15
aVMaybe
p65
ag14
ag18
aVMatthew
p66
ag19
ag16
ag20
ag21
ag22
ag47
asg36
I6
sg37
g66
ssS'w69'
p67
(dp68
g33
(lp69
Vyou're
p70
aVyou
p71
aVexit
p72
aVthank
p73
asg36
I2
sg37
g70
ssS'w62'
p74
(dp75
g33
(lp76
Vyou'll
p77
asg36
I0
sg37
g77
ssS'w63'
p78
(dp79
g33
(lp80
Vget
p81
asg36
I0
sg37
g81
ssS'w60'
p82
(dp83
g33
(lp84
Vcode
p85
asg36
I0
sg37
g85
ssS'w61'
p86
(dp87
g33
(lp88
g30
ag11
ag26
ag5
aVyou
p89
aVwill
p90
aVto
p91
aVthe
p92
ag45
aVFortress
p93
asg36
I2
sg37
g93
ssS'w66'
p94
(dp95
g33
(lp96
Vtask
p97
asg36
I0
sg37
g97
ssS'w67'
p98
(dp99
g33
(lp100
g12
ag13
ag14
ag15
ag16
ag17
ag18
ag19
ag20
ag21
aVmy
p101
ag22
asg36
I3
sg37
g101
ssS'w64'
p102
(dp103
g33
(lp104
Vhang
p105
asg36
I0
sg37
g105
ssS'w65'
p106
(dp107
g33
(lp108
Vof
p109
asg36
I0
sg37
g109
ssS'w19'
p110
(dp111
S'resp'
p112
(lp113
Vupgrades
p114
asS'uses'
p115
I0
sS'name'
p116
g114
ssS'w18'
p117
(dp118
g112
(lp119
Vadded
p120
asg115
I0
sg116
g120
ssS'w17'
p121
(dp122
g112
(lp123
VI've
p124
asg115
I0
sg116
g124
ssS'w16'
p125
(dp126
S'resp'
p127
(lp128
Vwhat
p129
aVgood
p130
aVname
p131
aVI
p132
aVam
p133
aVyourself
p134
aVto
p135
aVgoing
p136
aVare
p137
aVvery
p138
aVyou
p139
aVnow
p140
aVor
p141
aVglad
p142
asS'uses'
p143
I11
sS'name'
p144
g140
ssS'w15'
p145
(dp146
g127
(lp147
g129
ag131
aVhow
p148
aVfeel
p149
ag134
ag135
ag136
aVare
p150
aVyou
p151
aVnow
p152
ag141
asg143
I3
sg144
g149
ssS'w14'
p153
(dp154
g127
(lp155
Vdo
p156
ag129
ag131
ag134
ag135
ag136
ag137
ag139
ag141
asg143
I11
sg144
g156
ssS'w13'
p157
(dp158
g127
(lp159
g156
aVI
p160
aVlike
p161
aVthat
p162
ag149
aVyourself
p163
aVhow
p164
aVexit
p165
aVyou
p166
ag140
asg143
I5
sg144
g163
ssS'w12'
p167
(dp168
g127
(lp169
g156
ag149
ag164
ag150
ag166
ag140
aVfind
p170
asg143
I4
sg144
g170
ssS'w11'
p171
(dp172
S'resp'
p173
(lp174
g129
ag130
ag131
ag132
ag133
ag134
ag135
ag136
ag137
aVexcellent
p175
ag138
ag139
ag141
ag142
asS'uses'
p176
I0
sS'name'
p177
g175
ssS'w10'
p178
(dp179
g173
(lp180
Vfriend
p181
asg176
I0
sg177
g181
ssS'w7'
p182
(dp183
S'resp'
p184
(lp185
g71
ag72
aVat
p186
ag73
asS'uses'
p187
I2
sS'name'
p188
g186
ssS'w6'
p189
(dp190
g184
(lp191
Vlearning
p192
asg187
I0
sg188
g192
ssS'w5'
p193
(dp194
g184
(lp195
Vme
p196
asg187
I0
sg188
g196
ssS'w4'
p197
(dp198
g184
(lp199
g46
aVtell
p200
ag47
asg187
I0
sg188
g200
ssS'w3'
p201
(dp202
g184
(lp203
Vreal
p204
aVwisecracker
p205
ag129
ag131
aVhow
p206
aVhello
p207
ag134
ag135
ag136
aVare
p208
ag175
aVyou
p209
aVaren't
p210
ag141
asg187
I42
sg188
g209
ssS'w2'
p211
(dp212
g184
(lp213
g204
ag130
aVname
p214
ag132
aVtell
p215
ag207
aVwrite
p216
ag206
ag72
aVare
p217
ag138
aVyou
p218
ag210
aVyour
p219
ag73
asg187
I21
sg188
g217
ssS'w1'
p220
(dp221
g184
(lp222
Vme
p223
ag129
ag214
aVhow
p224
ag134
ag219
ag135
ag136
ag165
ag215
ag175
ag218
ag152
ag141
ag207
asg187
I31
sg188
g224
ssS'w9'
p225
(dp226
S'resp'
p227
(lp228
Vand
p229
ag129
aVgood
p230
aVyour
p231
ag131
aVis
p232
aVhello
p233
ag134
aVpleased
p234
ag136
ag137
ag175
ag139
aVconfiguration
p235
ag141
asS'uses'
p236
I2
sS'name'
p237
g233
ssS'w8'
p238
(dp239
g184
(lp240
Vall
p241
asg187
I0
sg188
g241
ssS'w104'
p242
(dp243
S'resp'
p244
(lp245
Vagain
p246
asS'uses'
p247
I0
sS'name'
p248
g246
ssS'w97'
p249
(dp250
S'resp'
p251
(lp252
g22
asS'uses'
p253
I0
sS'name'
p254
g22
ssS'w96'
p255
(dp256
g251
(lp257
g14
asg253
I0
sg254
g14
ssS'w95'
p258
(dp259
g251
(lp260
Vyou're
p261
aVgood
p262
aVanything
p263
aVbe
p264
aVto
p265
ag19
aVat
p266
aVwant
p267
aVyou
p268
asg253
I3
sg254
g19
ssS'w94'
p269
(dp270
g251
(lp271
g17
asg253
I0
sg254
g17
ssS'w93'
p272
(dp273
g251
(lp274
g261
ag262
ag263
ag264
ag18
ag265
ag266
ag267
ag268
asg253
I3
sg254
g18
ssS'w92'
p275
(dp276
S'resp'
p277
(lp278
Vtime
p279
asS'uses'
p280
I0
sS'name'
p281
g279
ssS'w91'
p282
(dp283
S'resp'
p284
(lp285
g12
ag13
ag14
ag15
ag65
ag17
ag18
ag19
ag16
ag20
ag21
ag22
asS'uses'
p286
I0
sS'name'
p287
g65
ssS'w90'
p288
(dp289
g284
(lp290
g65
aVlater
p291
asg286
I0
sg287
g291
ssS'w99'
p292
(dp293
g251
(lp294
g12
asg253
I0
sg254
g12
ssS'w98'
p295
(dp296
g251
(lp297
g16
asg253
I0
sg254
g16
ssS'w84'
p298
(dp299
g284
(lp300
Vgreat
p301
asg286
I0
sg287
g301
ssS'w85'
p302
(dp303
g284
(lp304
Vright
p305
asg286
I0
sg287
g305
ssS'w86'
p306
(dp307
g284
(lp308
Vhectic
p309
asg286
I0
sg287
g309
ssS'w87'
p310
(dp311
g284
(lp312
Vbut
p313
asg286
I0
sg287
g313
ssS'w80'
p314
(dp315
S'resp'
p316
(lp317
Vsesame
p318
aVlockdown
p319
aVopen
p320
asS'uses'
p321
I5
sS'name'
p322
g319
ssS'w81'
p323
(dp324
g316
(lp325
Vlockdown
p326
aVopen
p327
asg321
I7
sg322
g327
ssS'w82'
p328
(dp329
g316
(lp330
Vsesame
p331
ag326
asg321
I6
sg322
g331
ssS'w83'
p332
(dp333
g284
(lp334
Vthat
p335
asg286
I1
sg287
g335
ssS'w88'
p336
(dp337
g284
(lp338
Vcould
p339
asg286
I0
sg287
g339
ssS'w89'
p340
(dp341
g284
(lp342
g73
aVanything
p343
ag162
ag160
ag72
ag71
ag161
asg286
I1
sg287
g343
ssS'w100'
p344
(dp345
g251
(lp346
g13
asg253
I0
sg254
g13
ssS'w101'
p347
(dp348
g251
(lp349
g267
asg253
I0
sg254
g267
ssS'w102'
p350
(dp351
g251
(lp352
g72
asg253
I0
sg254
g72
ssS'w31'
p353
(dp354
S'resp'
p355
(lp356
g204
ag205
aVwhat
p357
aVname
p358
aVis
p359
ag216
aVMatthew
p360
aVyou
p361
ag210
aVmy
p362
aVyour
p363
asS'uses'
p364
I0
sS'name'
p365
g216
ssS'w30'
p366
(dp367
g355
(lp368
g204
ag205
aVnow
p369
aVname
p370
aVbe
p371
ag160
ag339
ag291
ag313
ag360
ag162
ag309
aVmeet
p372
ag210
ag359
aVto
p373
ag161
asg364
I10
sg365
Vname
p374
ssS'w33'
p375
(dp376
S'resp'
p377
(lp378
g204
ag205
ag46
ag361
ag210
ag141
ag47
asS'uses'
p379
I0
sS'name'
p380
g141
ssS'w32'
p381
(dp382
g377
(lp383
g204
ag205
ag130
ag73
ag138
ag133
ag132
ag136
ag72
ag361
ag210
ag142
asg379
I0
sg380
g136
ssS'w35'
p384
(dp385
S'resp'
p386
(lp387
g204
asS'uses'
p388
I0
sS'name'
p389
g204
ssS'w34'
p390
(dp391
g377
(lp392
g204
ag205
ag129
ag46
ag263
ag261
ag265
ag266
ag267
ag264
ag210
ag361
ag47
asg379
I5
sg380
g129
ssS'w37'
p393
(dp394
g386
(lp395
Vwhat
p396
ag210
ag231
ag232
aVname
p397
asg388
I0
sg389
g210
ssS'w36'
p398
(dp399
g386
(lp400
g205
ag70
ag46
aVname
p401
ag41
ag160
aVis
p402
ag162
ag161
ag66
ag101
ag47
asg388
I0
sg389
g205
ssS'w39'
p403
(dp404
S'resp'
p405
(lp406
g261
ag130
ag263
ag13
ag14
ag15
ag17
ag18
ag265
ag72
ag20
ag21
ag268
ag264
ag73
asS'uses'
p407
I5
sS'name'
p408
g130
ssS'w38'
p409
(dp410
g405
(lp411
g138
ag373
aVyou
p412
ag234
ag372
asg407
I0
sg408
g138
ssS'w53'
p413
(dp414
g33
(lp415
g371
ag305
aVname
p416
ag343
aVis
p417
ag291
aVit
p418
ag313
aVyour
p419
aVhear
p420
ag309
ag369
ag339
asg36
I3
sg37
g420
ssS'w52'
p421
(dp422
g33
(lp423
VBrooke
p424
asg36
I0
sg37
g424
ssS'w51'
p425
(dp426
S'resp'
p427
(lp428
Vpleasure
p429
asS'uses'
p430
I0
sS'name'
p431
g429
ssS'w50'
p432
(dp433
g427
(lp434
Vthe
p435
asg430
I0
sg431
g435
ssS'w57'
p436
(dp437
g33
(lp438
Vhas
p439
asg36
I0
sg37
g439
ssS'w56'
p440
(dp441
g33
(lp442
g30
ag11
ag45
ag81
ag109
ag5
aVit
p443
ag90
ag91
ag77
ag26
ag89
ag235
ag105
aVthe
p444
asg36
I4
sg37
g235
ssS'w55'
p445
(dp446
g33
(lp447
g30
ag11
ag26
ag5
ag89
ag90
ag91
aVnew
p448
ag92
ag45
asg36
I3
sg37
g448
ssS'w54'
p449
(dp450
g33
(lp451
g160
aVfrom
p452
ag161
ag162
asg36
I3
sg37
g452
ssS'w59'
p453
(dp454
g33
(lp455
Vthis
p456
asg36
I0
sg37
g456
ssS'w58'
p457
(dp458
g33
(lp459
Vservos
p460
asg36
I0
sg37
g460
ssS'w103'
p461
(dp462
g244
(lp463
Vhappy
p464
asg247
I0
sg248
g464
ssS'w26'
p465
(dp466
g112
(lp467
Vso
p468
asg115
I0
sg116
g468
ssS'w27'
p469
(dp470
g112
(lp471
Vmuch
p472
asg115
I0
sg116
g472
ssS'w24'
p473
(dp474
g112
(lp475
Vabout
p476
asg115
I0
sg116
g476
ssS'w25'
p477
(dp478
g112
(lp479
g165
aVthank
p480
asg115
I1
sg116
g480
ssS'w22'
p481
(dp482
g112
(lp483
Vsis
p484
asg115
I0
sg116
g484
ssS'w23'
p485
(dp486
g112
(lp487
Vsystem
p488
asg115
I0
sg116
g488
ssS'w20'
p489
(dp490
g112
(lp491
g70
ag305
ag401
ag343
ag371
ag138
ag339
ag133
ag418
ag313
ag66
ag130
ag369
ag101
ag402
asg115
I10
sg116
Vto
p492
ssS'w21'
p493
(dp494
g112
(lp495
g223
ag70
ag214
ag41
ag160
ag402
ag162
aVyour
p496
ag216
ag66
ag101
ag215
ag161
asg115
I15
sg116
g496
ssS'w28'
p497
(dp498
g355
(lp499
Vwill
p500
asg364
I3
sg365
g500
ssS'w29'
p501
(dp502
g355
(lp503
Vown
p504
asg364
I0
sg365
g504
ssS'w40'
p505
(dp506
g405
(lp507
g261
ag262
ag263
ag264
ag132
ag65
ag265
ag266
ag267
ag268
asg407
I7
sg408
g132
ssS'w41'
p508
(dp509
g405
(lp510
g133
asg407
I1
sg408
g133
ssS'w42'
p511
(dp512
g405
(lp513
g142
asg407
I0
sg408
g142
ssS'w43'
p514
(dp515
g405
(lp516
Vsave
p517
asg407
I2
sg408
g517
ssS'w44'
p518
(dp519
S'resp'
p520
(lp521
g234
asS'uses'
p522
I0
sS'name'
p523
g234
ssS'w45'
p524
(dp525
g520
(lp526
g372
asg522
I0
sg523
g372
ssS'w46'
p527
(dp528
S'resp'
p529
(lp530
g41
ag46
ag358
ag13
ag14
ag15
ag16
ag18
ag22
ag66
ag19
ag21
ag101
ag363
ag47
asS'uses'
p531
I20
sS'name'
p532
Vis
p533
ssS'w47'
p534
(dp535
g427
(lp536
Vis
p537
ag97
aVit
p538
aVyour
p539
asg430
I4
sg431
g538
ssS'w48'
p540
(dp541
g427
(lp542
Vcorrect
p543
asg430
I0
sg431
g543
ssS'w49'
p544
(dp545
g427
(lp546
Vand
p547
ag81
ag109
ag105
ag443
ag77
ag444
asg430
I5
sg431
g547
ss.